libstasm4.so.0 libstasm4 #MINVER#
 _Z19stasm_search_pinnedRN5stasm9StasmDataEPfPKfPKciiS6_@Base 4.0.0
 _ZN2cv3MatD1Ev@Base 4.0.0
 _ZN2cv3MatD2Ev@Base 4.0.0
 _ZN2cv3MataSERKS0_@Base 4.0.0
 _ZN2cv4Mat_IdED1Ev@Base 4.0.0
 _ZN2cv4Mat_IdED2Ev@Base 4.0.0
 _ZN2cv4Mat_IdEaSERKNS_3MatE@Base 4.0.0
 _ZN2cv4Mat_IhEaSERKNS_3MatE@Base 4.0.0
 _ZN2cv7MatExprD1Ev@Base 4.0.0
 _ZN2cv7MatExprD2Ev@Base 4.0.0
 _ZN5stasm10AlignShapeERKN2cv4Mat_IdEES4_@Base 4.0.0
 _ZN5stasm10AlignShapeERKN2cv4Mat_IdEEdddddd@Base 4.0.0
 _ZN5stasm10ArrayAsMatEiiPKd@Base 4.0.0
 _ZN5stasm10FlipDetParERKNS_6DetParEi@Base 4.0.0
 _ZN5stasm10HatDescModD0Ev@Base 4.0.0
 _ZN5stasm10HatDescModD1Ev@Base 4.0.0
 _ZN5stasm10HatDescModD2Ev@Base 4.0.0
 _ZN5stasm10ShapeWidthERKN2cv4Mat_IdEE@Base 4.0.0
 _ZN5stasm10StasmUtils16GetModelsDataDirEv@Base 4.0.0
 _ZN5stasm11BaseDescModD0Ev@Base 4.0.0
 _ZN5stasm11BaseDescModD1Ev@Base 4.0.0
 _ZN5stasm11BaseDescModD2Ev@Base 4.0.0
 _ZN5stasm11DetectFacesERN2cv17CascadeClassifierERSt6vectorINS_6DetParESaIS4_EERKNS0_4Mat_IhEEi@Base 4.0.0
 _ZN5stasm11MEANSHAPE17E@Base 4.0.0
 _ZN5stasm11OpenLogFileEv@Base 4.0.0
 _ZN5stasm11ShapeHeightERKN2cv4Mat_IdEE@Base 4.0.0
 _ZN5stasm11ShapeMinMaxERdS0_S0_S0_RKN2cv4Mat_IdEE@Base 4.0.0
 _ZN5stasm11SumAbsElemsERKN2cv4Mat_IdEE@Base 4.0.0
 _ZN5stasm11ToLowerCaseEPc@Base 4.0.0
 _ZN5stasm12AlignmentMatERKN2cv4Mat_IdEES4_PKd@Base 4.0.0
 _ZN5stasm12ConvertShapeERKN2cv4Mat_IdEEi@Base 4.0.0
 _ZN5stasm12EyawAsStringENS_4EYAWE@Base 4.0.0
 _ZN5stasm12EyeMouthDistERKN2cv4Mat_IdEE@Base 4.0.0
 _ZN5stasm12InterEyeDistERKN2cv4Mat_IdEE@Base 4.0.0
 _ZN5stasm12IsLeftFacingENS_4EYAWE@Base 4.0.0
 _ZN5stasm12OpenDetectorERN2cv17CascadeClassifierEPKcS4_@Base 4.0.0
 _ZN5stasm13DegreesAsEyawEdi@Base 4.0.0
 _ZN5stasm13DesaturateImgERN2cv4Mat_INS0_3VecIhLi3EEEEE@Base 4.0.0
 _ZN5stasm13GetHistogramsERSt6vectorIdSaIdEEiRKS2_S5_RKS0_IiSaIiEES5_S9_S5_@Base 4.0.0
 _ZN5stasm13HatDescSearchERdS0_PFdPKdE@Base 4.0.0
 _ZN5stasm14ClassicDescModC1EiPKdS2_@Base 4.0.0
 _ZN5stasm14ClassicDescModC2EiPKdS2_@Base 4.0.0
 _ZN5stasm14ClassicDescModD0Ev@Base 4.0.0
 _ZN5stasm14ClassicDescModD1Ev@Base 4.0.0
 _ZN5stasm14ClassicDescModD2Ev@Base 4.0.0
 _ZN5stasm14EyawAsModIndexENS_4EYAWERKSt6vectorIPKNS_3ModESaIS4_EE@Base 4.0.0
 _ZN5stasm14FlipImgInPlaceERN2cv4Mat_IhEE@Base 4.0.0
 _ZN5stasm14InitHatLevDataERKN2cv4Mat_IhEEi@Base 4.0.0
 _ZN5stasm15CatchOpenCvErrsEv@Base 4.0.0
 _ZN5stasm16FaceRoiAndDetParERN2cv4Mat_IhEERNS_6DetParERKS2_RKS4_bdddd@Base 4.0.0
 _ZN5stasm16ForceRectIntoImgERN2cv5Rect_IiEERKNS0_4Mat_IhEE@Base 4.0.0
 _ZN5stasm16ForceRectIntoImgERiS0_S0_S0_RKN2cv4Mat_IhEE@Base 4.0.0
 _ZN5stasm16JitterPointsAt00ERKN2cv4Mat_IdEE@Base 4.0.0
 _ZN5stasm17AlignShapeInPlaceERN2cv4Mat_IdEERKS2_@Base 4.0.0
 _ZN5stasm17AlignShapeInPlaceERN2cv4Mat_IdEEdddddd@Base 4.0.0
 _ZN5stasm17ClassicDescSearchERdS0_RKN2cv4Mat_IhEERKNS2_IdEEiS8_S8_@Base 4.0.0
 _ZN5stasm17ForcePinnedPointsERN2cv4Mat_IdEES2_@Base 4.0.0
 _ZN5stasm17GetMagsAndOrientsERSt6vectorIdSaIdEES3_iiiRKN2cv4Mat_IdEES8_RKS2_@Base 4.0.0
 _ZN5stasm17UncatchOpenCvErrsEv@Base 4.0.0
 _ZN5stasm18DetectEyesAndMouthERNS_9StasmDataERNS_6DetParERKN2cv4Mat_IhEE@Base 4.0.0
 _ZN5stasm18ImgShapeToRoiFrameERKN2cv4Mat_IdEERKNS_6DetParES7_@Base 4.0.0
 _ZN5stasm18RoiShapeToImgFrameERKN2cv4Mat_IdEERKNS1_IhEERKNS_6DetParESA_@Base 4.0.0
 _ZN5stasm20ApplyShapeModelHacksERN2cv4Mat_IdEEj@Base 4.0.0
 _ZN5stasm20NextStartShapeAndRoiERNS_9StasmDataERN2cv4Mat_IdEERNS3_IhEERNS_6DetParES9_RKS6_RKSt6vectorIPKNS_3ModESaISF_EERNS_7FaceDetE@Base 4.0.0
 _ZN5stasm20PossiblySetRotToZeroERd@Base 4.0.0
 _ZN5stasm20PrevAndNextLandmarksERiS0_iRKN2cv4Mat_IdEE@Base 4.0.0
 _ZN5stasm21OpenEyeMouthDetectorsERNS_9StasmDataERKSt6vectorIPKNS_3ModESaIS5_EEPKc@Base 4.0.0
 _ZN5stasm22PinnedStartShapeAndRoiERN2cv4Mat_IdEERNS1_IhEERNS_6DetParES7_S3_RKS4_RKSt6vectorIPKNS_3ModESaISD_EERKS2_@Base 4.0.0
 _ZN5stasm3ErrEPKcz@Base 4.0.0
 _ZN5stasm3Hat5Init_ERKN2cv4Mat_IhEEi@Base 4.0.0
 _ZN5stasm3HatD1Ev@Base 4.0.0
 _ZN5stasm3HatD2Ev@Base 4.0.0
 _ZN5stasm3ModD0Ev@Base 4.0.0
 _ZN5stasm3ModD1Ev@Base 4.0.0
 _ZN5stasm3ModD2Ev@Base 4.0.0
 _ZN5stasm45ConvertBackslashesToForwardAndStripFinalSlashEPc@Base 4.0.0
 _ZN5stasm4BaseEPKc@Base 4.0.0
 _ZN5stasm5lputsEPKc@Base 4.0.0
 _ZN5stasm6DetectERKN2cv4Mat_IhEEPNS0_17CascadeClassifierEPKNS0_5Rect_IiEEdiii@Base 4.0.0
 _ZN5stasm7BaseExtEPKc@Base 4.0.0
 _ZN5stasm7DimKeepERKN2cv4Mat_IdEEii@Base 4.0.0
 _ZN5stasm7FaceDet12DetectFaces_ERN2cv17CascadeClassifierERKNS1_4Mat_IhEEPKcbiPv@Base 4.0.0
 _ZN5stasm7FaceDet17OpenFaceDetector_ERN2cv17CascadeClassifierEPKcPv@Base 4.0.0
 _ZN5stasm7FaceDet9NextFace_Ev@Base 4.0.0
 _ZN5stasm7FlipImgERKN2cv4Mat_IhEE@Base 4.0.0
 _ZN5stasm7LastErrEv@Base 4.0.0
 _ZN5stasm7Shape17ERKN2cv4Mat_IdEE@Base 4.0.0
 _ZN5stasm7lprintfEPKcz@Base 4.0.0
 _ZN5stasm7print_gE@Base 4.0.0
 _ZN5stasm7trace_gE@Base 4.0.0
 _ZN5stasm8InitModsERSt6vectorIPKNS_3ModESaIS3_EEPKc@Base 4.0.0
 _ZN5stasm8LogShapeERKN2cv4Mat_IdEEPKc@Base 4.0.0
 _ZN5stasm8RoundMatERN2cv4Mat_IdEE@Base 4.0.0
 _ZN5stasm8ShapeModC1ERKN2cv4Mat_IdEES5_S5_idj@Base 4.0.0
 _ZN5stasm8ShapeModC2ERKN2cv4Mat_IdEES5_S5_idj@Base 4.0.0
 _ZN5stasm8ShapeModD1Ev@Base 4.0.0
 _ZN5stasm8ShapeModD2Ev@Base 4.0.0
 _ZN5stasm8makepathEPcPKcS2_S2_S2_@Base 4.0.0
 _ZN5stasm8ssprintfEPKcz@Base 4.0.0
 _ZN5stasm8strncpy_EPcPKci@Base 4.0.0
 _ZN5stasm9DrawShapeERN2cv4Mat_INS0_3VecIhLi3EEEEERKNS1_IdEEjbi@Base 4.0.0
 _ZN5stasm9FlipShapeERKN2cv4Mat_IdEEi@Base 4.0.0
 _ZN5stasm9ImgPrintfERN2cv4Mat_INS0_3VecIhLi3EEEEEddjdPKcz@Base 4.0.0
 _ZN5stasm9MeanPointERKN2cv4Mat_IdEEiii@Base 4.0.0
 _ZN5stasm9NeedMouthERKSt6vectorIPKNS_3ModESaIS3_EE@Base 4.0.0
 _ZN5stasm9logprintfEPKcz@Base 4.0.0
 _ZN5stasm9splitpathEPKcPcS2_S2_S2_@Base 4.0.0
 _ZN9__gnu_cxx21_Hashtable_prime_listImE16__stl_prime_listE@Base 4.0.0
 _ZN9__gnu_cxx8hash_mapIjN2cv4Mat_IdEENS_4hashIjEESt8equal_toIjESaIS3_EED1Ev@Base 4.0.0
 _ZN9__gnu_cxx8hash_mapIjN2cv4Mat_IdEENS_4hashIjEESt8equal_toIjESaIS3_EED2Ev@Base 4.0.0
 _ZN9__gnu_cxx9hashtableISt4pairIKjN2cv4Mat_IdEEEjNS_4hashIjEESt10_Select1stIS6_ESt8equal_toIjESaIS5_EE14find_or_insertERKS6_@Base 4.0.0
 _ZN9__gnu_cxx9hashtableISt4pairIKjN2cv4Mat_IdEEEjNS_4hashIjEESt10_Select1stIS6_ESt8equal_toIjESaIS5_EE6resizeEm@Base 4.0.0
 _ZNK5stasm10HatDescMod11DescSearch_ERdS1_RKN2cv4Mat_IhEERKNS3_IdEEii@Base 4.0.0
 _ZNK5stasm14ClassicDescMod11DescSearch_ERdS1_RKN2cv4Mat_IhEERKNS3_IdEEii@Base 4.0.0
 _ZNK5stasm3Hat5Desc_Edd@Base 4.0.0
 _ZNK5stasm3Mod10LevSearch_ERN2cv4Mat_IdEEiRKNS2_IhEERKS3_@Base 4.0.0
 _ZNK5stasm3Mod10ModSearch_ERKN2cv4Mat_IdEERKNS2_IhEEPS4_@Base 4.0.0
 _ZNK5stasm3Mod13SuggestShape_ERN2cv4Mat_IdEEiRKNS2_IhEERKS3_@Base 4.0.0
 _ZNK5stasm8ShapeMod18ConformShapeToMod_ERN2cv4Mat_IdEERKS3_i@Base 4.0.0
 _ZNK5stasm8ShapeMod25ConformShapeToMod_Pinned_ERN2cv4Mat_IdEERKS3_iS6_@Base 4.0.0
 _ZNSt6vectorIN2cv4Mat_IhEESaIS2_EE14_M_fill_insertEN9__gnu_cxx17__normal_iteratorIPS2_S4_EEmRKS2_@Base 4.0.0
 _ZNSt6vectorIN2cv4Mat_IhEESaIS2_EED1Ev@Base 4.0.0
 _ZNSt6vectorIN2cv4Mat_IhEESaIS2_EED2Ev@Base 4.0.0
 _ZNSt6vectorIN2cv5Rect_IiEESaIS2_EEaSERKS4_@Base 4.0.0
 _ZNSt6vectorIN5stasm6DetParESaIS1_EE13_M_insert_auxEN9__gnu_cxx17__normal_iteratorIPS1_S3_EERKS1_@Base 4.0.0
 _ZNSt6vectorIN5stasm6DetParESaIS1_EE14_M_fill_insertEN9__gnu_cxx17__normal_iteratorIPS1_S3_EEmRKS1_@Base 4.0.0
 _ZNSt6vectorIPFiiPKcS1_S1_iPvESaIS4_EED1Ev@Base 4.0.0
 _ZNSt6vectorIPFiiPKcS1_S1_iPvESaIS4_EED2Ev@Base 4.0.0
 _ZNSt6vectorIPKN5stasm11BaseDescModESaIS3_EE14_M_fill_insertEN9__gnu_cxx17__normal_iteratorIPS3_S5_EEmRKS3_@Base 4.0.0
 _ZNSt6vectorIPKN5stasm3ModESaIS3_EE14_M_fill_insertEN9__gnu_cxx17__normal_iteratorIPS3_S5_EEmRKS3_@Base 4.0.0
 _ZNSt6vectorIPN9__gnu_cxx15_Hashtable_nodeISt4pairIKjN2cv4Mat_IdEEEEESaIS9_EE14_M_fill_insertENS0_17__normal_iteratorIPS9_SB_EEmRKS9_@Base 4.0.0
 _ZNSt6vectorIPN9__gnu_cxx15_Hashtable_nodeISt4pairIKjN2cv4Mat_IdEEEEESaIS9_EE7reserveEm@Base 4.0.0
 _ZNSt6vectorIS_IPKN5stasm11BaseDescModESaIS3_EESaIS5_EED1Ev@Base 4.0.0
 _ZNSt6vectorIS_IPKN5stasm11BaseDescModESaIS3_EESaIS5_EED2Ev@Base 4.0.0
 _ZNSt6vectorIdSaIdEE14_M_fill_insertEN9__gnu_cxx17__normal_iteratorIPdS1_EEmRKd@Base 4.0.0
 _ZNSt6vectorIdSaIdEED1Ev@Base 4.0.0
 _ZNSt6vectorIdSaIdEED2Ev@Base 4.0.0
 _ZNSt6vectorIiSaIiEE14_M_fill_insertEN9__gnu_cxx17__normal_iteratorIPiS1_EEmRKi@Base 4.0.0
 _ZSt13__adjust_heapIN9__gnu_cxx17__normal_iteratorIPN5stasm6DetParESt6vectorIS3_SaIS3_EEEElS3_PFbRKS3_SA_EEvT_T0_SE_T1_T2_@Base 4.0.0
 _ZSt16__insertion_sortIN9__gnu_cxx17__normal_iteratorIPN5stasm6DetParESt6vectorIS3_SaIS3_EEEEPFbRKS3_SA_EEvT_SD_T0_@Base 4.0.0
 _ZSt16__introsort_loopIN9__gnu_cxx17__normal_iteratorIPN5stasm6DetParESt6vectorIS3_SaIS3_EEEElPFbRKS3_SA_EEvT_SD_T0_T1_@Base 4.0.0
 _ZSt25__unguarded_linear_insertIN9__gnu_cxx17__normal_iteratorIPN5stasm6DetParESt6vectorIS3_SaIS3_EEEEPFbRKS3_SA_EEvT_T0_@Base 4.0.0
 _ZSt9make_heapIN9__gnu_cxx17__normal_iteratorIPN5stasm6DetParESt6vectorIS3_SaIS3_EEEEPFbRKS3_SA_EEvT_SD_T0_@Base 4.0.0
 _ZTIN5stasm10HatDescModE@Base 4.0.0
 _ZTIN5stasm11BaseDescModE@Base 4.0.0
 _ZTIN5stasm14ClassicDescModE@Base 4.0.0
 _ZTIN5stasm3ModE@Base 4.0.0
 _ZTSN5stasm10HatDescModE@Base 4.0.0
 _ZTSN5stasm11BaseDescModE@Base 4.0.0
 _ZTSN5stasm14ClassicDescModE@Base 4.0.0
 _ZTSN5stasm3ModE@Base 4.0.0
 _ZTVN5stasm10HatDescModE@Base 4.0.0
 _ZTVN5stasm11BaseDescModE@Base 4.0.0
 _ZTVN5stasm14ClassicDescModE@Base 4.0.0
 _ZTVN5stasm3ModE@Base 4.0.0
 stasm_VERSION@Base 4.0.0
 stasm_convert_shape@Base 4.0.0
 stasm_force_points_into_image@Base 4.0.0
 stasm_init@Base 4.0.0
 stasm_init_ext@Base 4.0.0
 stasm_lasterr@Base 4.0.0
 stasm_open_image@Base 4.0.0
 stasm_open_image_ext@Base 4.0.0
 stasm_printf@Base 4.0.0
 stasm_search_auto@Base 4.0.0
 stasm_search_auto_ext@Base 4.0.0
 stasm_search_single@Base 4.0.0
